#include <math.h>
#include <stdio.h>
#include <stdlib.h>
#include <string.h>

int sushu(int x)
{
	int i,k;
	k=sqrt(x);
	for(i=2;i<=k;i++){
		if(x%i==0)break;}
	if(i>k) return 1;
	else return 0;
}
int main()
{
	int m,i,a,b;
	scanf("%d",&m);
	for(i=1;i<(m+2)/4;i++){
		a=2*i+1;
		b=m-a;
		if(sushu(a)==1){
			if(sushu(b)==1)printf("%d %d\n",a,b);}
	}
	return 0;
}
