; ModuleID = 'source-C-CXX/42/182.c'
source_filename = "source-C-CXX/42/182.c"
target datalayout = "e-m:e-p270:32:32-p271:32:32-p272:64:64-i64:64-f80:128-n8:16:32:64-S128"
target triple = "x86_64-pc-linux-gnu"

@.str = private unnamed_addr constant [3 x i8] c"%d\00", align 1
@.str.1 = private unnamed_addr constant [7 x i8] c"%d %d\0A\00", align 1

; Function Attrs: nofree nounwind sspstrong uwtable
define dso_local i32 @sushu(i32 %0) local_unnamed_addr #0 {
  %2 = sitofp i32 %0 to double
  %3 = tail call double @sqrt(double %2) #4
  %4 = fptosi double %3 to i32
  %5 = icmp slt i32 %4, 2
  br i1 %5, label %19, label %6

6:                                                ; preds = %1
  %7 = and i32 %0, 1
  %8 = icmp eq i32 %7, 0
  br i1 %8, label %19, label %9

9:                                                ; preds = %6, %13
  %10 = phi i32 [ %11, %13 ], [ 2, %6 ]
  %11 = add nuw i32 %10, 1
  %12 = icmp eq i32 %10, %4
  br i1 %12, label %16, label %13, !llvm.loop !5

13:                                               ; preds = %9
  %14 = srem i32 %0, %11
  %15 = icmp eq i32 %14, 0
  br i1 %15, label %16, label %9, !llvm.loop !5

16:                                               ; preds = %9, %13
  %17 = icmp sge i32 %10, %4
  %18 = zext i1 %17 to i32
  br label %19

19:                                               ; preds = %16, %6, %1
  %20 = phi i32 [ 1, %1 ], [ 0, %6 ], [ %18, %16 ]
  ret i32 %20
}

; Function Attrs: argmemonly mustprogress nofree nosync nounwind willreturn
declare void @llvm.lifetime.start.p0i8(i64 immarg, i8* nocapture) #1

; Function Attrs: mustprogress nofree nounwind willreturn
declare double @sqrt(double) local_unnamed_addr #2

; Function Attrs: argmemonly mustprogress nofree nosync nounwind willreturn
declare void @llvm.lifetime.end.p0i8(i64 immarg, i8* nocapture) #1

; Function Attrs: nofree nounwind sspstrong uwtable
define dso_local i32 @main() local_unnamed_addr #0 {
  %1 = alloca i32, align 4
  %2 = bitcast i32* %1 to i8*
  call void @llvm.lifetime.start.p0i8(i64 4, i8* nonnull %2) #4
  %3 = call i32 (i8*, ...) @__isoc99_scanf(i8* getelementptr inbounds ([3 x i8], [3 x i8]* @.str, i64 0, i64 0), i32* nonnull %1)
  %4 = load i32, i32* %1, align 4, !tbaa !7
  %5 = icmp sgt i32 %4, 5
  br i1 %5, label %6, label %50

6:                                                ; preds = %0, %44
  %7 = phi i32 [ %46, %44 ], [ %4, %0 ]
  %8 = phi i32 [ %45, %44 ], [ 1, %0 ]
  %9 = shl nuw nsw i32 %8, 1
  %10 = or i32 %9, 1
  %11 = sub nsw i32 %7, %10
  %12 = sitofp i32 %10 to double
  %13 = call double @sqrt(double %12) #4
  %14 = fptosi double %13 to i32
  %15 = icmp slt i32 %14, 2
  br i1 %15, label %25, label %16

16:                                               ; preds = %6, %20
  %17 = phi i32 [ %18, %20 ], [ 2, %6 ]
  %18 = add nuw i32 %17, 1
  %19 = icmp eq i32 %17, %14
  br i1 %19, label %23, label %20, !llvm.loop !5

20:                                               ; preds = %16
  %21 = srem i32 %10, %18
  %22 = icmp eq i32 %21, 0
  br i1 %22, label %23, label %16, !llvm.loop !5

23:                                               ; preds = %16, %20
  %24 = icmp slt i32 %17, %14
  br i1 %24, label %44, label %25

25:                                               ; preds = %6, %23
  %26 = sitofp i32 %11 to double
  %27 = call double @sqrt(double %26) #4
  %28 = fptosi double %27 to i32
  %29 = icmp slt i32 %28, 2
  br i1 %29, label %42, label %30

30:                                               ; preds = %25
  %31 = and i32 %11, 1
  %32 = icmp eq i32 %31, 0
  br i1 %32, label %44, label %33

33:                                               ; preds = %30, %37
  %34 = phi i32 [ %35, %37 ], [ 2, %30 ]
  %35 = add nuw i32 %34, 1
  %36 = icmp eq i32 %34, %28
  br i1 %36, label %40, label %37, !llvm.loop !5

37:                                               ; preds = %33
  %38 = srem i32 %11, %35
  %39 = icmp eq i32 %38, 0
  br i1 %39, label %40, label %33, !llvm.loop !5

40:                                               ; preds = %37, %33
  %41 = icmp slt i32 %34, %28
  br i1 %41, label %44, label %42

42:                                               ; preds = %25, %40
  %43 = call i32 (i8*, ...) @printf(i8* nonnull dereferenceable(1) getelementptr inbounds ([7 x i8], [7 x i8]* @.str.1, i64 0, i64 0), i32 %10, i32 %11)
  br label %44

44:                                               ; preds = %30, %23, %42, %40
  %45 = add nuw nsw i32 %8, 1
  %46 = load i32, i32* %1, align 4, !tbaa !7
  %47 = add nsw i32 %46, 2
  %48 = sdiv i32 %47, 4
  %49 = icmp slt i32 %45, %48
  br i1 %49, label %6, label %50, !llvm.loop !11

50:                                               ; preds = %44, %0
  call void @llvm.lifetime.end.p0i8(i64 4, i8* nonnull %2) #4
  ret i32 0
}

; Function Attrs: nofree nounwind
declare noundef i32 @__isoc99_scanf(i8* nocapture noundef readonly, ...) local_unnamed_addr #3

; Function Attrs: nofree nounwind
declare noundef i32 @printf(i8* nocapture noundef readonly, ...) local_unnamed_addr #3


!llvm.module.flags = !{!0, !1, !2, !3}
!llvm.ident = !{!4}

!0 = !{i32 1, !"wchar_size", i32 4}
!1 = !{i32 7, !"PIC Level", i32 2}
!2 = !{i32 7, !"PIE Level", i32 2}
!3 = !{i32 7, !"uwtable", i32 1}
!4 = !{!"clang version 13.0.0"}
!5 = distinct !{!5, !6}
!6 = !{!"llvm.loop.mustprogress"}
!7 = !{!8, !8, i64 0}
!8 = !{!"int", !9, i64 0}
!9 = !{!"omnipotent char", !10, i64 0}
!10 = !{!"Simple C/C++ TBAA"}
!11 = distinct !{!11, !6}
